; ModuleID = '9/1417.c'
source_filename = "9/1417.c"
target datalayout = "e-m:e-p270:32:32-p271:32:32-p272:64:64-i64:64-f80:128-n8:16:32:64-S128"
target triple = "x86_64-pc-linux-gnu"

@.str = private unnamed_addr constant [3 x i8] c"%d\00", align 1
@.str.1 = private unnamed_addr constant [6 x i8] c"%s %d\00", align 1

; Function Attrs: noinline nounwind uwtable
define dso_local i32 @main() #0 {
  %1 = alloca i32, align 4
  %2 = alloca i32, align 4
  %3 = alloca i32, align 4
  %4 = alloca i32, align 4
  %5 = alloca i32, align 4
  %6 = alloca i32, align 4
  %7 = alloca i32, align 4
  %8 = alloca i32, align 4
  %9 = alloca i32, align 4
  %10 = alloca [100 x [11 x i8]], align 16
  %11 = alloca [100 x [11 x i8]], align 16
  %12 = alloca [100 x [11 x i8]], align 16
  %13 = alloca [11 x i8], align 1
  %14 = alloca [100 x i32], align 16
  %15 = alloca [100 x i32], align 16
  store i32 0, i32* %1, align 4
  store i32 0, i32* %4, align 4
  store i32 0, i32* %5, align 4
  %16 = call i32 (i8*, ...) @__isoc99_scanf(i8* getelementptr inbounds ([3 x i8], [3 x i8]* @.str, i64 0, i64 0), i32* %2)
  store i32 0, i32* %3, align 4
  br label %17

17:                                               ; preds = %73, %0
  %18 = load i32, i32* %3, align 4
  %19 = load i32, i32* %2, align 4
  %20 = icmp slt i32 %18, %19
  br i1 %20, label %21, label %76

21:                                               ; preds = %17
  %22 = load i32, i32* %3, align 4
  %23 = sext i32 %22 to i64
  %24 = getelementptr inbounds [100 x [11 x i8]], [100 x [11 x i8]]* %10, i64 0, i64 %23
  %25 = getelementptr inbounds [11 x i8], [11 x i8]* %24, i64 0, i64 0
  %26 = load i32, i32* %3, align 4
  %27 = sext i32 %26 to i64
  %28 = getelementptr inbounds [100 x i32], [100 x i32]* %14, i64 0, i64 %27
  %29 = call i32 (i8*, ...) @__isoc99_scanf(i8* getelementptr inbounds ([6 x i8], [6 x i8]* @.str.1, i64 0, i64 0), i8* %25, i32* %28)
  %30 = load i32, i32* %3, align 4
  %31 = sext i32 %30 to i64
  %32 = getelementptr inbounds [100 x i32], [100 x i32]* %14, i64 0, i64 %31
  %33 = load i32, i32* %32, align 4
  %34 = icmp slt i32 %33, 60
  br i1 %34, label %35, label %47

35:                                               ; preds = %21
  %36 = load i32, i32* %4, align 4
  %37 = sext i32 %36 to i64
  %38 = getelementptr inbounds [100 x [11 x i8]], [100 x [11 x i8]]* %12, i64 0, i64 %37
  %39 = getelementptr inbounds [11 x i8], [11 x i8]* %38, i64 0, i64 0
  %40 = load i32, i32* %3, align 4
  %41 = sext i32 %40 to i64
  %42 = getelementptr inbounds [100 x [11 x i8]], [100 x [11 x i8]]* %10, i64 0, i64 %41
  %43 = getelementptr inbounds [11 x i8], [11 x i8]* %42, i64 0, i64 0
  %44 = call i8* @strcpy(i8* %39, i8* %43) #3
  %45 = load i32, i32* %4, align 4
  %46 = add nsw i32 %45, 1
  store i32 %46, i32* %4, align 4
  br label %47

47:                                               ; preds = %35, %21
  %48 = load i32, i32* %3, align 4
  %49 = sext i32 %48 to i64
  %50 = getelementptr inbounds [100 x i32], [100 x i32]* %14, i64 0, i64 %49
  %51 = load i32, i32* %50, align 4
  %52 = icmp sge i32 %51, 60
  br i1 %52, label %53, label %72

53:                                               ; preds = %47
  %54 = load i32, i32* %3, align 4
  %55 = sext i32 %54 to i64
  %56 = getelementptr inbounds [100 x i32], [100 x i32]* %14, i64 0, i64 %55
  %57 = load i32, i32* %56, align 4
  %58 = load i32, i32* %5, align 4
  %59 = sext i32 %58 to i64
  %60 = getelementptr inbounds [100 x i32], [100 x i32]* %15, i64 0, i64 %59
  store i32 %57, i32* %60, align 4
  %61 = load i32, i32* %5, align 4
  %62 = sext i32 %61 to i64
  %63 = getelementptr inbounds [100 x [11 x i8]], [100 x [11 x i8]]* %11, i64 0, i64 %62
  %64 = getelementptr inbounds [11 x i8], [11 x i8]* %63, i64 0, i64 0
  %65 = load i32, i32* %3, align 4
  %66 = sext i32 %65 to i64
  %67 = getelementptr inbounds [100 x [11 x i8]], [100 x [11 x i8]]* %10, i64 0, i64 %66
  %68 = getelementptr inbounds [11 x i8], [11 x i8]* %67, i64 0, i64 0
  %69 = call i8* @strcpy(i8* %64, i8* %68) #3
  %70 = load i32, i32* %5, align 4
  %71 = add nsw i32 %70, 1
  store i32 %71, i32* %5, align 4
  br label %72

72:                                               ; preds = %53, %47
  br label %73

73:                                               ; preds = %72
  %74 = load i32, i32* %3, align 4
  %75 = add nsw i32 %74, 1
  store i32 %75, i32* %3, align 4
  br label %17

76:                                               ; preds = %17
  store i32 1, i32* %6, align 4
  br label %77

77:                                               ; preds = %145, %76
  %78 = load i32, i32* %6, align 4
  %79 = load i32, i32* %5, align 4
  %80 = icmp sle i32 %78, %79
  br i1 %80, label %81, label %148

81:                                               ; preds = %77
  store i32 0, i32* %9, align 4
  br label %82

82:                                               ; preds = %141, %81
  %83 = load i32, i32* %9, align 4
  %84 = load i32, i32* %5, align 4
  %85 = load i32, i32* %6, align 4
  %86 = sub nsw i32 %84, %85
  %87 = icmp slt i32 %83, %86
  br i1 %87, label %88, label %144

88:                                               ; preds = %82
  %89 = load i32, i32* %9, align 4
  %90 = sext i32 %89 to i64
  %91 = getelementptr inbounds [100 x i32], [100 x i32]* %15, i64 0, i64 %90
  %92 = load i32, i32* %91, align 4
  %93 = load i32, i32* %9, align 4
  %94 = add nsw i32 %93, 1
  %95 = sext i32 %94 to i64
  %96 = getelementptr inbounds [100 x i32], [100 x i32]* %15, i64 0, i64 %95
  %97 = load i32, i32* %96, align 4
  %98 = icmp slt i32 %92, %97
  br i1 %98, label %99, label %140

99:                                               ; preds = %88
  %100 = load i32, i32* %9, align 4
  %101 = add nsw i32 %100, 1
  %102 = sext i32 %101 to i64
  %103 = getelementptr inbounds [100 x i32], [100 x i32]* %15, i64 0, i64 %102
  %104 = load i32, i32* %103, align 4
  store i32 %104, i32* %7, align 4
  %105 = load i32, i32* %9, align 4
  %106 = sext i32 %105 to i64
  %107 = getelementptr inbounds [100 x i32], [100 x i32]* %15, i64 0, i64 %106
  %108 = load i32, i32* %107, align 4
  %109 = load i32, i32* %9, align 4
  %110 = add nsw i32 %109, 1
  %111 = sext i32 %110 to i64
  %112 = getelementptr inbounds [100 x i32], [100 x i32]* %15, i64 0, i64 %111
  store i32 %108, i32* %112, align 4
  %113 = load i32, i32* %7, align 4
  %114 = load i32, i32* %9, align 4
  %115 = sext i32 %114 to i64
  %116 = getelementptr inbounds [100 x i32], [100 x i32]* %15, i64 0, i64 %115
  store i32 %113, i32* %116, align 4
  %117 = getelementptr inbounds [11 x i8], [11 x i8]* %13, i64 0, i64 0
  %118 = load i32, i32* %9, align 4
  %119 = add nsw i32 %118, 1
  %120 = sext i32 %119 to i64
  %121 = getelementptr inbounds [100 x [11 x i8]], [100 x [11 x i8]]* %11, i64 0, i64 %120
  %122 = getelementptr inbounds [11 x i8], [11 x i8]* %121, i64 0, i64 0
  %123 = call i8* @strcpy(i8* %117, i8* %122) #3
  %124 = load i32, i32* %9, align 4
  %125 = add nsw i32 %124, 1
  %126 = sext i32 %125 to i64
  %127 = getelementptr inbounds [100 x [11 x i8]], [100 x [11 x i8]]* %11, i64 0, i64 %126
  %128 = getelementptr inbounds [11 x i8], [11 x i8]* %127, i64 0, i64 0
  %129 = load i32, i32* %9, align 4
  %130 = sext i32 %129 to i64
  %131 = getelementptr inbounds [100 x [11 x i8]], [100 x [11 x i8]]* %11, i64 0, i64 %130
  %132 = getelementptr inbounds [11 x i8], [11 x i8]* %131, i64 0, i64 0
  %133 = call i8* @strcpy(i8* %128, i8* %132) #3
  %134 = load i32, i32* %9, align 4
  %135 = sext i32 %134 to i64
  %136 = getelementptr inbounds [100 x [11 x i8]], [100 x [11 x i8]]* %11, i64 0, i64 %135
  %137 = getelementptr inbounds [11 x i8], [11 x i8]* %136, i64 0, i64 0
  %138 = getelementptr inbounds [11 x i8], [11 x i8]* %13, i64 0, i64 0
  %139 = call i8* @strcpy(i8* %137, i8* %138) #3
  br label %140

140:                                              ; preds = %99, %88
  br label %141

141:                                              ; preds = %140
  %142 = load i32, i32* %9, align 4
  %143 = add nsw i32 %142, 1
  store i32 %143, i32* %9, align 4
  br label %82

144:                                              ; preds = %82
  br label %145

145:                                              ; preds = %144
  %146 = load i32, i32* %6, align 4
  %147 = add nsw i32 %146, 1
  store i32 %147, i32* %6, align 4
  br label %77

148:                                              ; preds = %77
  store i32 0, i32* %8, align 4
  br label %149

149:                                              ; preds = %159, %148
  %150 = load i32, i32* %8, align 4
  %151 = load i32, i32* %5, align 4
  %152 = icmp slt i32 %150, %151
  br i1 %152, label %153, label %162

153:                                              ; preds = %149
  %154 = load i32, i32* %8, align 4
  %155 = sext i32 %154 to i64
  %156 = getelementptr inbounds [100 x [11 x i8]], [100 x [11 x i8]]* %11, i64 0, i64 %155
  %157 = getelementptr inbounds [11 x i8], [11 x i8]* %156, i64 0, i64 0
  %158 = call i32 @puts(i8* %157)
  br label %159

159:                                              ; preds = %153
  %160 = load i32, i32* %8, align 4
  %161 = add nsw i32 %160, 1
  store i32 %161, i32* %8, align 4
  br label %149

162:                                              ; preds = %149
  store i32 0, i32* %8, align 4
  br label %163

163:                                              ; preds = %173, %162
  %164 = load i32, i32* %8, align 4
  %165 = load i32, i32* %4, align 4
  %166 = icmp slt i32 %164, %165
  br i1 %166, label %167, label %176

167:                                              ; preds = %163
  %168 = load i32, i32* %8, align 4
  %169 = sext i32 %168 to i64
  %170 = getelementptr inbounds [100 x [11 x i8]], [100 x [11 x i8]]* %12, i64 0, i64 %169
  %171 = getelementptr inbounds [11 x i8], [11 x i8]* %170, i64 0, i64 0
  %172 = call i32 @puts(i8* %171)
  br label %173

173:                                              ; preds = %167
  %174 = load i32, i32* %8, align 4
  %175 = add nsw i32 %174, 1
  store i32 %175, i32* %8, align 4
  br label %163

176:                                              ; preds = %163
  ret i32 0
}

declare dso_local i32 @__isoc99_scanf(i8*, ...) #1

; Function Attrs: nounwind
declare dso_local i8* @strcpy(i8*, i8*) #2

declare dso_local i32 @puts(i8*) #1


!llvm.module.flags = !{!0}
!llvm.ident = !{!1}

!0 = !{i32 1, !"wchar_size", i32 4}
!1 = !{!"clang version 10.0.0-4ubuntu1 "}
